target datalayout = "e-m:e-p270:32:32-p271:32:32-p272:64:64-i64:64-i128:128-f80:128-n8:16:32:64-S128"
target triple = "x86_64-pc-linux-gnu"

; Function Attrs: nounwind uwtable
define hidden void @av1_dr_prediction_z3_c(ptr noundef %0, i64 noundef %1, i32 noundef %2, i32 noundef %3, ptr noundef %4, ptr noundef %5, i32 noundef %6, i32 noundef %7, i32 noundef %8) #0 {
  %10 = alloca ptr, align 8
  %11 = alloca i64, align 8
  %12 = alloca i32, align 4
  %13 = alloca i32, align 4
  %14 = alloca ptr, align 8
  %15 = alloca ptr, align 8
  %16 = alloca i32, align 4
  %17 = alloca i32, align 4
  %18 = alloca i32, align 4
  %19 = alloca i32, align 4
  %20 = alloca i32, align 4
  %21 = alloca i32, align 4
  %22 = alloca i32, align 4
  %23 = alloca i32, align 4
  %24 = alloca i32, align 4
  %25 = alloca i32, align 4
  %26 = alloca i32, align 4
  %27 = alloca i32, align 4
  store ptr %0, ptr %10, align 8
  store i64 %1, ptr %11, align 8
  store i32 %2, ptr %12, align 4
  store i32 %3, ptr %13, align 4
  store ptr %4, ptr %14, align 8
  store ptr %5, ptr %15, align 8
  store i32 %6, ptr %16, align 4
  store i32 %7, ptr %17, align 4
  store i32 %8, ptr %18, align 4
  %28 = load i32, ptr %12, align 4
  %29 = load i32, ptr %13, align 4
  %30 = add nsw i32 %28, %29
  %31 = sub nsw i32 %30, 1
  %32 = load i32, ptr %16, align 4
  %33 = shl i32 %31, %32
  store i32 %33, ptr %25, align 4
  %34 = load i32, ptr %16, align 4
  %35 = sub nsw i32 6, %34
  store i32 %35, ptr %26, align 4
  %36 = load i32, ptr %16, align 4
  %37 = shl i32 1, %36
  store i32 %37, ptr %27, align 4
  %38 = load i32, ptr %18, align 4
  store i32 %38, ptr %21, align 4
  store i32 0, ptr %20, align 4
  br label %39

39:                                               ; preds = %125, %9
  %40 = load i32, ptr %20, align 4
  %41 = load i32, ptr %12, align 4
  %42 = icmp slt i32 %40, %41
  br i1 %42, label %43, label %131

43:                                               ; preds = %39
  %44 = load i32, ptr %21, align 4
  %45 = load i32, ptr %26, align 4
  %46 = ashr i32 %44, %45
  store i32 %46, ptr %22, align 4
  %47 = load i32, ptr %21, align 4
  %48 = load i32, ptr %16, align 4
  %49 = shl i32 %47, %48
  %50 = and i32 %49, 63
  %51 = ashr i32 %50, 1
  store i32 %51, ptr %23, align 4
  store i32 0, ptr %19, align 4
  br label %52

52:                                               ; preds = %118, %43
  %53 = load i32, ptr %19, align 4
  %54 = load i32, ptr %13, align 4
  %55 = icmp slt i32 %53, %54
  br i1 %55, label %56, label %124

56:                                               ; preds = %52
  %57 = load i32, ptr %22, align 4
  %58 = load i32, ptr %25, align 4
  %59 = icmp slt i32 %57, %58
  br i1 %59, label %60, label %93

60:                                               ; preds = %56
  %61 = load ptr, ptr %15, align 8
  %62 = load i32, ptr %22, align 4
  %63 = sext i32 %62 to i64
  %64 = getelementptr inbounds i8, ptr %61, i64 %63
  %65 = load i8, ptr %64, align 1
  %66 = zext i8 %65 to i32
  %67 = load i32, ptr %23, align 4
  %68 = sub nsw i32 32, %67
  %69 = mul nsw i32 %66, %68
  %70 = load ptr, ptr %15, align 8
  %71 = load i32, ptr %22, align 4
  %72 = add nsw i32 %71, 1
  %73 = sext i32 %72 to i64
  %74 = getelementptr inbounds i8, ptr %70, i64 %73
  %75 = load i8, ptr %74, align 1
  %76 = zext i8 %75 to i32
  %77 = load i32, ptr %23, align 4
  %78 = mul nsw i32 %76, %77
  %79 = add nsw i32 %69, %78
  store i32 %79, ptr %24, align 4
  %80 = load i32, ptr %24, align 4
  %81 = add nsw i32 %80, 16
  %82 = ashr i32 %81, 5
  store i32 %82, ptr %24, align 4
  %83 = trunc i32 %82 to i8
  %84 = load ptr, ptr %10, align 8
  %85 = load i32, ptr %19, align 4
  %86 = sext i32 %85 to i64
  %87 = load i64, ptr %11, align 8
  %88 = mul nsw i64 %86, %87
  %89 = load i32, ptr %20, align 4
  %90 = sext i32 %89 to i64
  %91 = add nsw i64 %88, %90
  %92 = getelementptr inbounds i8, ptr %84, i64 %91
  store i8 %83, ptr %92, align 1
  br label %117

93:                                               ; preds = %56
  br label %94

94:                                               ; preds = %113, %93
  %95 = load i32, ptr %19, align 4
  %96 = load i32, ptr %13, align 4
  %97 = icmp slt i32 %95, %96
  br i1 %97, label %98, label %116

98:                                               ; preds = %94
  %99 = load ptr, ptr %15, align 8
  %100 = load i32, ptr %25, align 4
  %101 = sext i32 %100 to i64
  %102 = getelementptr inbounds i8, ptr %99, i64 %101
  %103 = load i8, ptr %102, align 1
  %104 = load ptr, ptr %10, align 8
  %105 = load i32, ptr %19, align 4
  %106 = sext i32 %105 to i64
  %107 = load i64, ptr %11, align 8
  %108 = mul nsw i64 %106, %107
  %109 = load i32, ptr %20, align 4
  %110 = sext i32 %109 to i64
  %111 = add nsw i64 %108, %110
  %112 = getelementptr inbounds i8, ptr %104, i64 %111
  store i8 %103, ptr %112, align 1
  br label %113

113:                                              ; preds = %98
  %114 = load i32, ptr %19, align 4
  %115 = add nsw i32 %114, 1
  store i32 %115, ptr %19, align 4
  br label %94, !llvm.loop !10

116:                                              ; preds = %94
  br label %124

117:                                              ; preds = %60
  br label %118

118:                                              ; preds = %117
  %119 = load i32, ptr %19, align 4
  %120 = add nsw i32 %119, 1
  store i32 %120, ptr %19, align 4
  %121 = load i32, ptr %27, align 4
  %122 = load i32, ptr %22, align 4
  %123 = add nsw i32 %122, %121
  store i32 %123, ptr %22, align 4
  br label %52, !llvm.loop !11

124:                                              ; preds = %116, %52
  br label %125

125:                                              ; preds = %124
  %126 = load i32, ptr %20, align 4
  %127 = add nsw i32 %126, 1
  store i32 %127, ptr %20, align 4
  %128 = load i32, ptr %18, align 4
  %129 = load i32, ptr %21, align 4
  %130 = add nsw i32 %129, %128
  store i32 %130, ptr %21, align 4
  br label %39, !llvm.loop !12

131:                                              ; preds = %39
  ret void
}