; Function Attrs: nofree norecurse nosync nounwind memory(argmem: readwrite) uwtable
define hidden void @av1_dr_prediction_z3_c(ptr nocapture noundef writeonly %0, i64 noundef %1, i32 noundef %2, i32 noundef %3, ptr nocapture noundef readnone %4, ptr nocapture noundef readonly %5, i32 noundef %6, i32 noundef %7, i32 noundef %8) local_unnamed_addr #0 {
  %10 = sub nsw i32 6, %6
  %11 = shl nuw i32 1, %6
  %12 = icmp sgt i32 %2, 0
  br i1 %12, label %.lr.ph56, label %._crit_edge

.lr.ph56:                                         ; preds = %9
  %13 = add nsw i32 %2, -1
  %14 = add i32 %13, %3
  %15 = shl i32 %14, %6
  %16 = icmp sgt i32 %3, 0
  %17 = sext i32 %15 to i64
  %18 = getelementptr inbounds i8, ptr %5, i64 %17
  br i1 %16, label %.lr.ph.us.preheader, label %._crit_edge

.lr.ph.us.preheader:                              ; preds = %.lr.ph56
  %19 = sext i32 %11 to i64
  %wide.trip.count74 = zext nneg i32 %2 to i64
  %wide.trip.count = zext nneg i32 %3 to i64
  br label %.lr.ph.us

.lr.ph.us:                                        ; preds = %.lr.ph.us.preheader, %.loopexit.us
  %indvars.iv71 = phi i64 [ 0, %.lr.ph.us.preheader ], [ %indvars.iv.next72, %.loopexit.us ]
  %.04253.us = phi i32 [ %8, %.lr.ph.us.preheader ], [ %28, %.loopexit.us ]
  %20 = ashr i32 %.04253.us, %10
  %21 = shl i32 %.04253.us, %6
  %22 = lshr i32 %21, 1
  %23 = and i32 %22, 31
  %24 = sub nuw nsw i32 32, %23
  %invariant.gep.us = getelementptr i8, ptr %0, i64 %indvars.iv71
  %25 = sext i32 %20 to i64
  br label %26

26:                                               ; preds = %.lr.ph.us, %31
  %indvars.iv60 = phi i64 [ %25, %.lr.ph.us ], [ %indvars.iv.next61, %31 ]
  %indvars.iv = phi i64 [ 0, %.lr.ph.us ], [ %indvars.iv.next, %31 ]
  %27 = icmp slt i64 %indvars.iv60, %17
  br i1 %27, label %31, label %.preheader.us

.loopexit.us:                                     ; preds = %31, %29, %.preheader.us
  %indvars.iv.next72 = add nuw nsw i64 %indvars.iv71, 1
  %28 = add nsw i32 %.04253.us, %8
  %exitcond75.not = icmp eq i64 %indvars.iv.next72, %wide.trip.count74
  br i1 %exitcond75.not, label %._crit_edge, label %.lr.ph.us, !llvm.loop !10

29:                                               ; preds = %.lr.ph50.us, %29
  %indvars.iv66 = phi i64 [ %indvars.iv, %.lr.ph50.us ], [ %indvars.iv.next67, %29 ]
  %30 = mul nsw i64 %1, %indvars.iv66
  %gep52.us = getelementptr i8, ptr %invariant.gep.us, i64 %30
  store i8 %.pre, ptr %gep52.us, align 1
  %indvars.iv.next67 = add nuw nsw i64 %indvars.iv66, 1
  %exitcond70.not = icmp eq i64 %indvars.iv.next67, %wide.trip.count
  br i1 %exitcond70.not, label %.loopexit.us, label %29, !llvm.loop !11

31:                                               ; preds = %26
  %32 = getelementptr inbounds i8, ptr %5, i64 %indvars.iv60
  %33 = load i8, ptr %32, align 1
  %34 = zext i8 %33 to i32
  %35 = mul nuw nsw i32 %24, %34
  %36 = getelementptr i8, ptr %32, i64 1
  %37 = load i8, ptr %36, align 1
  %38 = zext i8 %37 to i32
  %39 = mul nuw nsw i32 %23, %38
  %40 = add nuw nsw i32 %35, 16
  %41 = add nuw nsw i32 %40, %39
  %42 = lshr i32 %41, 5
  %43 = trunc i32 %42 to i8
  %44 = mul nsw i64 %1, %indvars.iv
  %gep.us = getelementptr i8, ptr %invariant.gep.us, i64 %44
  store i8 %43, ptr %gep.us, align 1
  %indvars.iv.next = add nuw nsw i64 %indvars.iv, 1
  %indvars.iv.next61 = add nsw i64 %indvars.iv60, %19
  %exitcond.not = icmp eq i64 %indvars.iv.next, %wide.trip.count
  br i1 %exitcond.not, label %.loopexit.us, label %26, !llvm.loop !12

.preheader.us:                                    ; preds = %26
  %45 = trunc nuw nsw i64 %indvars.iv to i32
  %46 = icmp sgt i32 %3, %45
  br i1 %46, label %.lr.ph50.us, label %.loopexit.us

.lr.ph50.us:                                      ; preds = %.preheader.us
  %.pre = load i8, ptr %18, align 1
  br label %29

._crit_edge:                                      ; preds = %.loopexit.us, %.lr.ph56, %9
  ret void
}